target datalayout = "e-m:e-p270:32:32-p271:32:32-p272:64:64-i64:64-i128:128-f80:128-n8:16:32:64-S128"
target triple = "x86_64-pc-linux-gnu"

%struct.epan_column_info = type { ptr, i32, ptr, ptr, ptr, %struct.col_expr_t, i32, ptr }
%struct.col_expr_t = type { ptr, ptr }
%struct.col_item_t = type { i32, ptr, ptr, ptr, i32, ptr, ptr, ptr, ptr, i32, i32, i32 }
%struct.__va_list_tag = type { i32, i32, ptr, ptr }

; Function Attrs: nounwind uwtable
define i32 @col_get_writable(ptr noundef %0, i32 noundef %1) #0 {
  %3 = alloca i32, align 4
  %4 = alloca ptr, align 8
  %5 = alloca i32, align 4
  %6 = alloca i32, align 4
  %7 = alloca ptr, align 8
  store ptr %0, ptr %4, align 8
  store i32 %1, ptr %5, align 4
  %8 = load ptr, ptr %4, align 8
  %9 = icmp eq ptr %8, null
  br i1 %9, label %10, label %11

10:                                               ; preds = %2
  store i32 0, ptr %3, align 4
  br label %75

11:                                               ; preds = %2
  %12 = load i32, ptr %5, align 4
  %13 = icmp eq i32 %12, -1
  br i1 %13, label %19, label %14

14:                                               ; preds = %11
  %15 = load ptr, ptr %4, align 8
  %16 = getelementptr inbounds %struct.epan_column_info, ptr %15, i32 0, i32 6
  %17 = load i32, ptr %16, align 8
  %18 = icmp eq i32 %17, 0
  br i1 %18, label %19, label %23

19:                                               ; preds = %14, %11
  %20 = load ptr, ptr %4, align 8
  %21 = getelementptr inbounds %struct.epan_column_info, ptr %20, i32 0, i32 6
  %22 = load i32, ptr %21, align 8
  store i32 %22, ptr %3, align 4
  br label %75

23:                                               ; preds = %14
  %24 = load ptr, ptr %4, align 8
  %25 = getelementptr inbounds %struct.epan_column_info, ptr %24, i32 0, i32 3
  %26 = load ptr, ptr %25, align 8
  %27 = load i32, ptr %5, align 4
  %28 = sext i32 %27 to i64
  %29 = getelementptr i32, ptr %26, i64 %28
  %30 = load i32, ptr %29, align 4
  %31 = icmp sge i32 %30, 0
  br i1 %31, label %32, label %74

32:                                               ; preds = %23
  %33 = load ptr, ptr %4, align 8
  %34 = getelementptr inbounds %struct.epan_column_info, ptr %33, i32 0, i32 3
  %35 = load ptr, ptr %34, align 8
  %36 = load i32, ptr %5, align 4
  %37 = sext i32 %36 to i64
  %38 = getelementptr i32, ptr %35, i64 %37
  %39 = load i32, ptr %38, align 4
  store i32 %39, ptr %6, align 4
  br label %40

40:                                               ; preds = %70, %32
  %41 = load i32, ptr %6, align 4
  %42 = load ptr, ptr %4, align 8
  %43 = getelementptr inbounds %struct.epan_column_info, ptr %42, i32 0, i32 4
  %44 = load ptr, ptr %43, align 8
  %45 = load i32, ptr %5, align 4
  %46 = sext i32 %45 to i64
  %47 = getelementptr i32, ptr %44, i64 %46
  %48 = load i32, ptr %47, align 4
  %49 = icmp sle i32 %41, %48
  br i1 %49, label %50, label %73

50:                                               ; preds = %40
  %51 = load ptr, ptr %4, align 8
  %52 = getelementptr inbounds %struct.epan_column_info, ptr %51, i32 0, i32 2
  %53 = load ptr, ptr %52, align 8
  %54 = load i32, ptr %6, align 4
  %55 = sext i32 %54 to i64
  %56 = getelementptr %struct.col_item_t, ptr %53, i64 %55
  store ptr %56, ptr %7, align 8
  %57 = load ptr, ptr %7, align 8
  %58 = getelementptr inbounds %struct.col_item_t, ptr %57, i32 0, i32 1
  %59 = load ptr, ptr %58, align 8
  %60 = load i32, ptr %5, align 4
  %61 = sext i32 %60 to i64
  %62 = getelementptr i32, ptr %59, i64 %61
  %63 = load i32, ptr %62, align 4
  %64 = icmp ne i32 %63, 0
  br i1 %64, label %65, label %69

65:                                               ; preds = %50
  %66 = load ptr, ptr %7, align 8
  %67 = getelementptr inbounds %struct.col_item_t, ptr %66, i32 0, i32 10
  %68 = load i32, ptr %67, align 4
  store i32 %68, ptr %3, align 4
  br label %75

69:                                               ; preds = %50
  br label %70

70:                                               ; preds = %69
  %71 = load i32, ptr %6, align 4
  %72 = add i32 %71, 1
  store i32 %72, ptr %6, align 4
  br label %40, !llvm.loop !9

73:                                               ; preds = %40
  br label %74

74:                                               ; preds = %73, %23
  store i32 0, ptr %3, align 4
  br label %75

75:                                               ; preds = %74, %65, %19, %10
  %76 = load i32, ptr %3, align 4
  ret i32 %76
}

; Function Attrs: nounwind uwtable
define void @col_add_fstr(ptr noundef %0, i32 noundef %1, ptr noundef %2, ...) #0 {
  %4 = alloca ptr, align 8
  %5 = alloca i32, align 4
  %6 = alloca ptr, align 8
  %7 = alloca [1 x %struct.__va_list_tag], align 16
  %8 = alloca i32, align 4
  %9 = alloca i32, align 4
  %10 = alloca i32, align 4
  %11 = alloca ptr, align 8
  %12 = alloca [4096 x i8], align 16
  store ptr %0, ptr %4, align 8
  store i32 %1, ptr %5, align 4
  store ptr %2, ptr %6, align 8
  %13 = load ptr, ptr %4, align 8
  %14 = load i32, ptr %5, align 4
  %15 = call i32 @col_get_writable(ptr noundef %13, i32 noundef %14)
  %16 = icmp ne i32 %15, 0
  br i1 %16, label %17, label %26

17:                                               ; preds = %3
  %18 = load ptr, ptr %4, align 8
  %19 = getelementptr inbounds %struct.epan_column_info, ptr %18, i32 0, i32 3
  %20 = load ptr, ptr %19, align 8
  %21 = load i32, ptr %5, align 4
  %22 = sext i32 %21 to i64
  %23 = getelementptr i32, ptr %20, i64 %22
  %24 = load i32, ptr %23, align 4
  %25 = icmp sge i32 %24, 0
  br i1 %25, label %27, label %26

26:                                               ; preds = %17, %3
  br label %134

27:                                               ; preds = %17
  %28 = load i32, ptr %5, align 4
  %29 = icmp eq i32 %28, 25
  br i1 %29, label %30, label %31

30:                                               ; preds = %27
  store i32 4096, ptr %10, align 4
  br label %32

31:                                               ; preds = %27
  store i32 2048, ptr %10, align 4
  br label %32

32:                                               ; preds = %31, %30
  %33 = load ptr, ptr %4, align 8
  %34 = getelementptr inbounds %struct.epan_column_info, ptr %33, i32 0, i32 3
  %35 = load ptr, ptr %34, align 8
  %36 = load i32, ptr %5, align 4
  %37 = sext i32 %36 to i64
  %38 = getelementptr i32, ptr %35, i64 %37
  %39 = load i32, ptr %38, align 4
  store i32 %39, ptr %8, align 4
  br label %40

40:                                               ; preds = %131, %32
  %41 = load i32, ptr %8, align 4
  %42 = load ptr, ptr %4, align 8
  %43 = getelementptr inbounds %struct.epan_column_info, ptr %42, i32 0, i32 4
  %44 = load ptr, ptr %43, align 8
  %45 = load i32, ptr %5, align 4
  %46 = sext i32 %45 to i64
  %47 = getelementptr i32, ptr %44, i64 %46
  %48 = load i32, ptr %47, align 4
  %49 = icmp sle i32 %41, %48
  br i1 %49, label %50, label %134

50:                                               ; preds = %40
  %51 = load ptr, ptr %4, align 8
  %52 = getelementptr inbounds %struct.epan_column_info, ptr %51, i32 0, i32 2
  %53 = load ptr, ptr %52, align 8
  %54 = load i32, ptr %8, align 4
  %55 = sext i32 %54 to i64
  %56 = getelementptr %struct.col_item_t, ptr %53, i64 %55
  store ptr %56, ptr %11, align 8
  %57 = load ptr, ptr %11, align 8
  %58 = getelementptr inbounds %struct.col_item_t, ptr %57, i32 0, i32 1
  %59 = load ptr, ptr %58, align 8
  %60 = load i32, ptr %5, align 4
  %61 = sext i32 %60 to i64
  %62 = getelementptr i32, ptr %59, i64 %61
  %63 = load i32, ptr %62, align 4
  %64 = icmp ne i32 %63, 0
  br i1 %64, label %65, label %130

65:                                               ; preds = %50
  %66 = load ptr, ptr %11, align 8
  %67 = getelementptr inbounds %struct.col_item_t, ptr %66, i32 0, i32 9
  %68 = load i32, ptr %67, align 8
  %69 = icmp ne i32 %68, 0
  br i1 %69, label %70, label %94

70:                                               ; preds = %65
  %71 = load ptr, ptr %11, align 8
  %72 = getelementptr inbounds %struct.col_item_t, ptr %71, i32 0, i32 7
  %73 = load ptr, ptr %72, align 8
  %74 = load ptr, ptr %11, align 8
  %75 = getelementptr inbounds %struct.col_item_t, ptr %74, i32 0, i32 8
  %76 = load ptr, ptr %75, align 8
  %77 = icmp ne ptr %73, %76
  br i1 %77, label %78, label %93

78:                                               ; preds = %70
  %79 = load ptr, ptr %11, align 8
  %80 = getelementptr inbounds %struct.col_item_t, ptr %79, i32 0, i32 8
  %81 = load ptr, ptr %80, align 8
  %82 = load ptr, ptr %11, align 8
  %83 = getelementptr inbounds %struct.col_item_t, ptr %82, i32 0, i32 7
  %84 = load ptr, ptr %83, align 8
  %85 = load i32, ptr %10, align 4
  %86 = sext i32 %85 to i64
  %87 = call i64 @g_strlcpy(ptr noundef %81, ptr noundef %84, i64 noundef %86)
  %88 = load ptr, ptr %11, align 8
  %89 = getelementptr inbounds %struct.col_item_t, ptr %88, i32 0, i32 8
  %90 = load ptr, ptr %89, align 8
  %91 = load ptr, ptr %11, align 8
  %92 = getelementptr inbounds %struct.col_item_t, ptr %91, i32 0, i32 7
  store ptr %90, ptr %92, align 8
  br label %93

93:                                               ; preds = %78, %70
  br label %100

94:                                               ; preds = %65
  %95 = load ptr, ptr %11, align 8
  %96 = getelementptr inbounds %struct.col_item_t, ptr %95, i32 0, i32 8
  %97 = load ptr, ptr %96, align 8
  %98 = load ptr, ptr %11, align 8
  %99 = getelementptr inbounds %struct.col_item_t, ptr %98, i32 0, i32 7
  store ptr %97, ptr %99, align 8
  br label %100

100:                                              ; preds = %94, %93
  %101 = getelementptr inbounds [1 x %struct.__va_list_tag], ptr %7, i64 0, i64 0
  call void @llvm.va_start.p0(ptr %101)
  %102 = getelementptr inbounds [4096 x i8], ptr %12, i64 0, i64 0
  %103 = load ptr, ptr %6, align 8
  %104 = getelementptr inbounds [1 x %struct.__va_list_tag], ptr %7, i64 0, i64 0
  %105 = call i32 @vsnprintf(ptr noundef %102, i64 noundef 4096, ptr noundef %103, ptr noundef %104) #7
  store i32 %105, ptr %9, align 4
  %106 = getelementptr inbounds [1 x %struct.__va_list_tag], ptr %7, i64 0, i64 0
  call void @llvm.va_end.p0(ptr %106)
  %107 = load i32, ptr %9, align 4
  %108 = load i32, ptr %10, align 4
  %109 = icmp sge i32 %107, %108
  br i1 %109, label %110, label %116

110:                                              ; preds = %100
  %111 = getelementptr inbounds [4096 x i8], ptr %12, i64 0, i64 0
  %112 = load i32, ptr %10, align 4
  %113 = sub i32 %112, 1
  %114 = sext i32 %113 to i64
  %115 = call ptr @ws_utf8_truncate(ptr noundef %111, i64 noundef %114)
  br label %116

116:                                              ; preds = %110, %100
  br label %117

117:                                              ; preds = %116
  br label %118

118:                                              ; preds = %117
  %119 = load ptr, ptr %11, align 8
  %120 = getelementptr inbounds %struct.col_item_t, ptr %119, i32 0, i32 8
  %121 = load ptr, ptr %120, align 8
  %122 = load i32, ptr %10, align 4
  %123 = sext i32 %122 to i64
  %124 = load ptr, ptr %11, align 8
  %125 = getelementptr inbounds %struct.col_item_t, ptr %124, i32 0, i32 9
  %126 = load i32, ptr %125, align 8
  %127 = sext i32 %126 to i64
  %128 = getelementptr inbounds [4096 x i8], ptr %12, i64 0, i64 0
  %129 = call i64 @ws_label_strcpy(ptr noundef %121, i64 noundef %123, i64 noundef %127, ptr noundef %128, i32 noundef 0)
  br label %130

130:                                              ; preds = %118, %50
  br label %131

131:                                              ; preds = %130
  %132 = load i32, ptr %8, align 4
  %133 = add i32 %132, 1
  store i32 %133, ptr %8, align 4
  br label %40, !llvm.loop !26

134:                                              ; preds = %40, %26
  ret void
}