; Function Attrs: nounwind uwtable
define void @col_add_fstr(ptr noundef readonly %0, i32 noundef %1, ptr noundef readonly captures(none) %2, ...) local_unnamed_addr #0 {
  %4 = alloca [1 x %struct.__va_list_tag], align 16
  %5 = alloca [4096 x i8], align 16
  %6 = icmp eq ptr %0, null
  br i1 %6, label %col_get_writable.exit.thread, label %7

7:                                                ; preds = %3
  %8 = icmp eq i32 %1, -1
  %.phi.trans.insert.i = getelementptr inbounds nuw i8, ptr %0, i64 56
  %.pre.i = load i32, ptr %.phi.trans.insert.i, align 8
  br i1 %8, label %col_get_writable.exit, label %9

9:                                                ; preds = %7
  %10 = icmp eq i32 %.pre.i, 0
  br i1 %10, label %col_get_writable.exit.thread, label %11

11:                                               ; preds = %9
  %12 = getelementptr inbounds nuw i8, ptr %0, i64 24
  %13 = load ptr, ptr %12, align 8
  %14 = sext i32 %1 to i64
  %15 = getelementptr i32, ptr %13, i64 %14
  %16 = load i32, ptr %15, align 4
  %17 = icmp sgt i32 %16, -1
  br i1 %17, label %.preheader.i, label %col_get_writable.exit.thread

.preheader.i:                                     ; preds = %11
  %18 = getelementptr inbounds nuw i8, ptr %0, i64 32
  %19 = load ptr, ptr %18, align 8
  %20 = getelementptr i32, ptr %19, i64 %14
  %21 = load i32, ptr %20, align 4
  %.not22.i = icmp sgt i32 %16, %21
  br i1 %.not22.i, label %col_get_writable.exit.thread, label %.lr.ph.i

.lr.ph.i:                                         ; preds = %.preheader.i
  %22 = getelementptr inbounds nuw i8, ptr %0, i64 16
  %23 = load ptr, ptr %22, align 8
  br label %26

24:                                               ; preds = %26
  %25 = add i32 %.01723.i, 1
  %.not.i = icmp sgt i32 %25, %21
  br i1 %.not.i, label %col_get_writable.exit.thread, label %26, !llvm.loop !9

26:                                               ; preds = %24, %.lr.ph.i
  %.01723.i = phi i32 [ %16, %.lr.ph.i ], [ %25, %24 ]
  %27 = sext i32 %.01723.i to i64
  %28 = getelementptr %struct.col_item_t, ptr %23, i64 %27
  %29 = getelementptr inbounds nuw i8, ptr %28, i64 8
  %30 = load ptr, ptr %29, align 8
  %31 = getelementptr i32, ptr %30, i64 %14
  %32 = load i32, ptr %31, align 4
  %.not21.i = icmp eq i32 %32, 0
  br i1 %.not21.i, label %24, label %33

33:                                               ; preds = %26
  %34 = getelementptr inbounds nuw i8, ptr %28, i64 76
  %35 = load i32, ptr %34, align 4
  br label %col_get_writable.exit

col_get_writable.exit:                            ; preds = %7, %33
  %.0.i = phi i32 [ %35, %33 ], [ %.pre.i, %7 ]
  %.not = icmp eq i32 %.0.i, 0
  br i1 %.not, label %col_get_writable.exit.thread, label %36

36:                                               ; preds = %col_get_writable.exit
  %37 = getelementptr inbounds nuw i8, ptr %0, i64 24
  %38 = load ptr, ptr %37, align 8
  %39 = sext i32 %1 to i64
  %40 = getelementptr i32, ptr %38, i64 %39
  %41 = load i32, ptr %40, align 4
  %42 = icmp sgt i32 %41, -1
  br i1 %42, label %43, label %col_get_writable.exit.thread

43:                                               ; preds = %36
  %44 = icmp eq i32 %1, 25
  %. = select i1 %44, i32 4096, i32 2048
  %45 = getelementptr inbounds nuw i8, ptr %0, i64 32
  %46 = load ptr, ptr %45, align 8
  %47 = getelementptr i32, ptr %46, i64 %39
  %48 = load i32, ptr %47, align 4
  %.not3443 = icmp sgt i32 %41, %48
  br i1 %.not3443, label %col_get_writable.exit.thread, label %.lr.ph

.lr.ph:                                           ; preds = %43
  %49 = getelementptr inbounds nuw i8, ptr %0, i64 16
  %50 = zext nneg i32 %. to i64
  %51 = add nsw i32 %., -1
  %52 = zext nneg i32 %51 to i64
  br label %53

53:                                               ; preds = %.lr.ph, %87
  %54 = phi ptr [ %46, %.lr.ph ], [ %88, %87 ]
  %.044 = phi i32 [ %41, %.lr.ph ], [ %89, %87 ]
  %55 = load ptr, ptr %49, align 8
  %56 = sext i32 %.044 to i64
  %57 = getelementptr %struct.col_item_t, ptr %55, i64 %56
  %58 = getelementptr inbounds nuw i8, ptr %57, i64 8
  %59 = load ptr, ptr %58, align 8
  %60 = getelementptr i32, ptr %59, i64 %39
  %61 = load i32, ptr %60, align 4
  %.not35 = icmp eq i32 %61, 0
  br i1 %.not35, label %87, label %62

62:                                               ; preds = %53
  %63 = getelementptr inbounds nuw i8, ptr %57, i64 72
  %64 = load i32, ptr %63, align 8
  %.not36 = icmp eq i32 %64, 0
  br i1 %.not36, label %73, label %65

65:                                               ; preds = %62
  %66 = getelementptr inbounds nuw i8, ptr %57, i64 56
  %67 = load ptr, ptr %66, align 8
  %68 = getelementptr inbounds nuw i8, ptr %57, i64 64
  %69 = load ptr, ptr %68, align 8
  %.not37 = icmp eq ptr %67, %69
  br i1 %.not37, label %77, label %70

70:                                               ; preds = %65
  %71 = call i64 @g_strlcpy(ptr noundef %69, ptr noundef %67, i64 noundef %50) #16
  %72 = load ptr, ptr %68, align 8
  store ptr %72, ptr %66, align 8
  br label %77

73:                                               ; preds = %62
  %74 = getelementptr inbounds nuw i8, ptr %57, i64 64
  %75 = load ptr, ptr %74, align 8
  %76 = getelementptr inbounds nuw i8, ptr %57, i64 56
  store ptr %75, ptr %76, align 8
  br label %77

77:                                               ; preds = %65, %70, %73
  call void @llvm.va_start.p0(ptr nonnull %4)
  %78 = call i32 @vsnprintf(ptr noundef nonnull %5, i64 noundef 4096, ptr noundef %2, ptr noundef nonnull %4) #16
  call void @llvm.va_end.p0(ptr nonnull %4)
  %.not38 = icmp slt i32 %78, %.
  br i1 %.not38, label %81, label %79

79:                                               ; preds = %77
  %80 = call ptr @ws_utf8_truncate(ptr noundef nonnull %5, i64 noundef %52) #16
  br label %81

81:                                               ; preds = %79, %77
  %82 = getelementptr inbounds nuw i8, ptr %57, i64 64
  %83 = load ptr, ptr %82, align 8
  %84 = load i32, ptr %63, align 8
  %85 = sext i32 %84 to i64
  %86 = call i64 @ws_label_strcpy(ptr noundef %83, i64 noundef %50, i64 noundef %85, ptr noundef nonnull %5, i32 noundef 0) #16
  %.pre = load ptr, ptr %45, align 8
  br label %87

87:                                               ; preds = %53, %81
  %88 = phi ptr [ %54, %53 ], [ %.pre, %81 ]
  %89 = add i32 %.044, 1
  %90 = getelementptr i32, ptr %88, i64 %39
  %91 = load i32, ptr %90, align 4
  %.not34 = icmp sgt i32 %89, %91
  br i1 %.not34, label %col_get_writable.exit.thread, label %53, !llvm.loop !26

col_get_writable.exit.thread:                     ; preds = %24, %87, %43, %9, %.preheader.i, %11, %3, %col_get_writable.exit, %36
  ret void
}